target datalayout = "e-m:e-p270:32:32-p271:32:32-p272:64:64-i64:64-i128:128-f80:128-n8:16:32:64-S128"
target triple = "x86_64-pc-linux-gnu"

%"class.std::__cxx11::basic_string" = type { %"struct.std::__cxx11::basic_string<char>::_Alloc_hider", i64, %union.anon }
%"struct.std::__cxx11::basic_string<char>::_Alloc_hider" = type { ptr }
%union.anon = type { i64, [8 x i8] }
%"struct.igl::tinyply::PlyProperty" = type { %"class.std::__cxx11::basic_string", i8, i8, i8, i64 }
%"struct.igl::tinyply::PlyFile::PlyFileImpl::PropertyLookup" = type { ptr, i8, i64, i64 }
%class.anon.93 = type { ptr, ptr, ptr, ptr }

; Function Attrs: mustprogress nounwind uwtable
define linkonce_odr dso_local void @_ZNSt11char_traitsIcE6assignERcRKc(ptr noundef nonnull align 1 dereferenceable(1) %0, ptr noundef nonnull align 1 dereferenceable(1) %1) #4 comdat align 2 {
  %3 = alloca ptr, align 8
  %4 = alloca ptr, align 8
  store ptr %0, ptr %3, align 8, !tbaa !18
  store ptr %1, ptr %4, align 8, !tbaa !18
  %5 = load ptr, ptr %4, align 8, !tbaa !18
  %6 = load i8, ptr %5, align 1, !tbaa !51
  %7 = load ptr, ptr %3, align 8, !tbaa !18
  store i8 %6, ptr %7, align 1, !tbaa !51
  ret void
}

; Function Attrs: mustprogress nounwind uwtable
define available_externally noundef ptr @_ZNKSt7__cxx1112basic_stringIcSt11char_traitsIcESaIcEE7_M_dataEv(ptr noundef nonnull align 8 dereferenceable(32) %0) #4 align 2 {
  %2 = alloca ptr, align 8
  store ptr %0, ptr %2, align 8, !tbaa !16
  %3 = load ptr, ptr %2, align 8
  %4 = getelementptr inbounds nuw %"class.std::__cxx11::basic_string", ptr %3, i32 0, i32 0
  %5 = getelementptr inbounds nuw %"struct.std::__cxx11::basic_string<char>::_Alloc_hider", ptr %4, i32 0, i32 0
  %6 = load ptr, ptr %5, align 8, !tbaa !319
  ret ptr %6
}

; Function Attrs: mustprogress nounwind uwtable
define available_externally void @_ZNSt7__cxx1112basic_stringIcSt11char_traitsIcESaIcEE9_M_lengthEm(ptr noundef nonnull align 8 dereferenceable(32) %0, i64 noundef %1) #4 align 2 {
  %3 = alloca ptr, align 8
  %4 = alloca i64, align 8
  store ptr %0, ptr %3, align 8, !tbaa !16
  store i64 %1, ptr %4, align 8, !tbaa !50
  %5 = load ptr, ptr %3, align 8
  %6 = load i64, ptr %4, align 8, !tbaa !50
  %7 = getelementptr inbounds nuw %"class.std::__cxx11::basic_string", ptr %5, i32 0, i32 1
  store i64 %6, ptr %7, align 8, !tbaa !318
  ret void
}

; Function Attrs: mustprogress nounwind uwtable
define available_externally void @_ZNSt7__cxx1112basic_stringIcSt11char_traitsIcESaIcEE13_M_set_lengthEm(ptr noundef nonnull align 8 dereferenceable(32) %0, i64 noundef %1) #4 align 2 {
  %3 = alloca ptr, align 8
  %4 = alloca i64, align 8
  %5 = alloca i8, align 1
  store ptr %0, ptr %3, align 8, !tbaa !16
  store i64 %1, ptr %4, align 8, !tbaa !50
  %6 = load ptr, ptr %3, align 8
  %7 = load i64, ptr %4, align 8, !tbaa !50
  call void @_ZNSt7__cxx1112basic_stringIcSt11char_traitsIcESaIcEE9_M_lengthEm(ptr noundef nonnull align 8 dereferenceable(32) %6, i64 noundef %7)
  %8 = call noundef ptr @_ZNKSt7__cxx1112basic_stringIcSt11char_traitsIcESaIcEE7_M_dataEv(ptr noundef nonnull align 8 dereferenceable(32) %6)
  %9 = load i64, ptr %4, align 8, !tbaa !50
  %10 = getelementptr inbounds nuw i8, ptr %8, i64 %9
  call void @llvm.lifetime.start.p0(i64 1, ptr %5) #6
  store i8 0, ptr %5, align 1, !tbaa !51
  call void @_ZNSt11char_traitsIcE6assignERcRKc(ptr noundef nonnull align 1 dereferenceable(1) %10, ptr noundef nonnull align 1 dereferenceable(1) %5) #6
  call void @llvm.lifetime.end.p0(i64 1, ptr %5) #6
  ret void
}

; Function Attrs: mustprogress nounwind uwtable
define available_externally void @_ZNSt7__cxx1112basic_stringIcSt11char_traitsIcESaIcEE5clearEv(ptr noundef nonnull align 8 dereferenceable(32) %0) #4 align 2 {
  %2 = alloca ptr, align 8
  store ptr %0, ptr %2, align 8, !tbaa !16
  %3 = load ptr, ptr %2, align 8
  call void @_ZNSt7__cxx1112basic_stringIcSt11char_traitsIcESaIcEE13_M_set_lengthEm(ptr noundef nonnull align 8 dereferenceable(32) %3, i64 noundef 0)
  ret void
}

; Function Attrs: inlinehint mustprogress nounwind uwtable
define internal noundef i64 @"_ZZN3igl7tinyply7PlyFile11PlyFileImpl10parse_dataERSibENK3$_3clERNS2_14PropertyLookupERKNS0_11PlyPropertyES3_"(ptr noundef nonnull align 8 dereferenceable(32) %0, ptr noundef nonnull align 8 dereferenceable(32) %1, ptr noundef nonnull align 8 dereferenceable(48) %2, ptr noundef nonnull align 8 dereferenceable(16) %3) #5 align 2 personality ptr @__gxx_personality_v0 {
  %5 = alloca i64, align 8
  %6 = alloca ptr, align 8
  %7 = alloca ptr, align 8
  %8 = alloca ptr, align 8
  %9 = alloca ptr, align 8
  %10 = alloca i64, align 8
  store ptr %0, ptr %6, align 8, !tbaa !29
  store ptr %1, ptr %7, align 8, !tbaa !108
  store ptr %2, ptr %8, align 8, !tbaa !56
  store ptr %3, ptr %9, align 8, !tbaa !58
  %11 = load ptr, ptr %6, align 8
  %12 = getelementptr inbounds nuw %class.anon.93, ptr %11, i32 0, i32 0
  %13 = load ptr, ptr %12, align 8, !tbaa !215
  %14 = getelementptr inbounds nuw %class.anon.93, ptr %11, i32 0, i32 3
  %15 = load ptr, ptr %14, align 8, !tbaa !849
  call void @_ZNSt7__cxx1112basic_stringIcSt11char_traitsIcESaIcEE5clearEv(ptr noundef nonnull align 8 dereferenceable(32) %15) #6
  %16 = load ptr, ptr %8, align 8, !tbaa !56
  %17 = getelementptr inbounds nuw %"struct.igl::tinyply::PlyProperty", ptr %16, i32 0, i32 2
  %18 = load i8, ptr %17, align 1, !tbaa !63, !range !93, !noundef !94
  %19 = trunc i8 %18 to i1
  br i1 %19, label %20, label %58

20:                                               ; preds = %4
  %21 = load ptr, ptr %8, align 8, !tbaa !56
  %22 = getelementptr inbounds nuw %"struct.igl::tinyply::PlyProperty", ptr %21, i32 0, i32 3
  %23 = load ptr, ptr %7, align 8, !tbaa !108
  %24 = getelementptr inbounds nuw %"struct.igl::tinyply::PlyFile::PlyFileImpl::PropertyLookup", ptr %23, i32 0, i32 3
  %25 = getelementptr inbounds nuw %class.anon.93, ptr %11, i32 0, i32 1
  %26 = load ptr, ptr %25, align 8, !tbaa !850
  %27 = getelementptr inbounds nuw %class.anon.93, ptr %11, i32 0, i32 2
  %28 = load ptr, ptr %27, align 8, !tbaa !851
  %29 = load ptr, ptr %9, align 8, !tbaa !58
  %30 = invoke noundef i64 @_ZN3igl7tinyply7PlyFile11PlyFileImpl19read_property_asciiERKNS0_4TypeERKmPvRmRSi(ptr noundef nonnull align 8 dereferenceable(200) %13, ptr noundef nonnull align 1 dereferenceable(1) %22, ptr noundef nonnull align 8 dereferenceable(8) %24, ptr noundef %26, ptr noundef nonnull align 8 dereferenceable(8) %28, ptr noundef nonnull align 8 dereferenceable(16) %29)
          to label %31 unwind label %69

31:                                               ; preds = %20
  call void @llvm.lifetime.start.p0(i64 8, ptr %10) #6
  store i64 0, ptr %10, align 8, !tbaa !50
  br label %32

32:                                               ; preds = %46, %31
  %33 = load i64, ptr %10, align 8, !tbaa !50
  %34 = getelementptr inbounds nuw %class.anon.93, ptr %11, i32 0, i32 1
  %35 = load ptr, ptr %34, align 8, !tbaa !850
  %36 = load i32, ptr %35, align 4, !tbaa !22
  %37 = zext i32 %36 to i64
  %38 = icmp ult i64 %33, %37
  br i1 %38, label %40, label %39

39:                                               ; preds = %32
  call void @llvm.lifetime.end.p0(i64 8, ptr %10) #6
  br label %49

40:                                               ; preds = %32
  %41 = load ptr, ptr %9, align 8, !tbaa !58
  %42 = getelementptr inbounds nuw %class.anon.93, ptr %11, i32 0, i32 3
  %43 = load ptr, ptr %42, align 8, !tbaa !849
  %44 = invoke noundef nonnull align 8 dereferenceable(16) ptr @_ZStrsIcSt11char_traitsIcESaIcEERSt13basic_istreamIT_T0_ES7_RNSt7__cxx1112basic_stringIS4_S5_T1_EE(ptr noundef nonnull align 8 dereferenceable(16) %41, ptr noundef nonnull align 8 dereferenceable(32) %43)
          to label %45 unwind label %69

45:                                               ; preds = %40
  br label %46

46:                                               ; preds = %45
  %47 = load i64, ptr %10, align 8, !tbaa !50
  %48 = add i64 %47, 1
  store i64 %48, ptr %10, align 8, !tbaa !50
  br label %32, !llvm.loop !852

49:                                               ; preds = %39
  %50 = getelementptr inbounds nuw %class.anon.93, ptr %11, i32 0, i32 1
  %51 = load ptr, ptr %50, align 8, !tbaa !850
  %52 = load i32, ptr %51, align 4, !tbaa !22
  %53 = zext i32 %52 to i64
  %54 = load ptr, ptr %7, align 8, !tbaa !108
  %55 = getelementptr inbounds nuw %"struct.igl::tinyply::PlyFile::PlyFileImpl::PropertyLookup", ptr %54, i32 0, i32 2
  %56 = load i64, ptr %55, align 8, !tbaa !92
  %57 = mul i64 %53, %56
  store i64 %57, ptr %5, align 8
  br label %67

58:                                               ; preds = %4
  %59 = load ptr, ptr %9, align 8, !tbaa !58
  %60 = getelementptr inbounds nuw %class.anon.93, ptr %11, i32 0, i32 3
  %61 = load ptr, ptr %60, align 8, !tbaa !849
  %62 = invoke noundef nonnull align 8 dereferenceable(16) ptr @_ZStrsIcSt11char_traitsIcESaIcEERSt13basic_istreamIT_T0_ES7_RNSt7__cxx1112basic_stringIS4_S5_T1_EE(ptr noundef nonnull align 8 dereferenceable(16) %59, ptr noundef nonnull align 8 dereferenceable(32) %61)
          to label %63 unwind label %69

63:                                               ; preds = %58
  %64 = load ptr, ptr %7, align 8, !tbaa !108
  %65 = getelementptr inbounds nuw %"struct.igl::tinyply::PlyFile::PlyFileImpl::PropertyLookup", ptr %64, i32 0, i32 2
  %66 = load i64, ptr %65, align 8, !tbaa !92
  store i64 %66, ptr %5, align 8
  br label %67

67:                                               ; preds = %63, %49
  %68 = load i64, ptr %5, align 8
  ret i64 %68

69:                                               ; preds = %58, %40, %20
  %70 = landingpad { ptr, i32 }
          catch ptr null
  %71 = extractvalue { ptr, i32 } %70, 0
  call void @__clang_call_terminate(ptr %71) #23
  unreachable
}

; Function Attrs: mustprogress nounwind uwtable
define linkonce_odr dso_local noundef ptr @_ZNKSt9_Any_data9_M_accessEv(ptr noundef nonnull align 8 dereferenceable(16) %0) #4 comdat align 2 {
  %2 = alloca ptr, align 8
  store ptr %0, ptr %2, align 8, !tbaa !832
  %3 = load ptr, ptr %2, align 8
  %4 = getelementptr inbounds [16 x i8], ptr %3, i64 0, i64 0
  ret ptr %4
}

; Function Attrs: mustprogress nounwind uwtable
define internal noundef i64 @"_ZSt13__invoke_implImRZN3igl7tinyply7PlyFile11PlyFileImpl10parse_dataERSibE3$_3JRNS3_14PropertyLookupERKNS1_11PlyPropertyES4_EET_St14__invoke_otherOT0_DpOT1_"(ptr noundef nonnull align 8 dereferenceable(32) %0, ptr noundef nonnull align 8 dereferenceable(32) %1, ptr noundef nonnull align 8 dereferenceable(48) %2, ptr noundef nonnull align 8 dereferenceable(16) %3) #4 {
  %5 = alloca ptr, align 8
  %6 = alloca ptr, align 8
  %7 = alloca ptr, align 8
  %8 = alloca ptr, align 8
  store ptr %0, ptr %5, align 8, !tbaa !29
  store ptr %1, ptr %6, align 8, !tbaa !108
  store ptr %2, ptr %7, align 8, !tbaa !56
  store ptr %3, ptr %8, align 8, !tbaa !58
  %9 = load ptr, ptr %5, align 8, !tbaa !29
  %10 = load ptr, ptr %6, align 8, !tbaa !108
  %11 = load ptr, ptr %7, align 8, !tbaa !56
  %12 = load ptr, ptr %8, align 8, !tbaa !58
  %13 = call noundef i64 @"_ZZN3igl7tinyply7PlyFile11PlyFileImpl10parse_dataERSibENK3$_3clERNS2_14PropertyLookupERKNS0_11PlyPropertyES3_"(ptr noundef nonnull align 8 dereferenceable(32) %9, ptr noundef nonnull align 8 dereferenceable(32) %10, ptr noundef nonnull align 8 dereferenceable(48) %11, ptr noundef nonnull align 8 dereferenceable(16) %12) #6
  ret i64 %13
}

; Function Attrs: mustprogress nounwind uwtable
define internal noundef nonnull align 8 dereferenceable(8) ptr @"_ZNKSt9_Any_data9_M_accessIPZN3igl7tinyply7PlyFile11PlyFileImpl10parse_dataERSibE3$_3EERKT_v"(ptr noundef nonnull align 8 dereferenceable(16) %0) #4 align 2 {
  %2 = alloca ptr, align 8
  store ptr %0, ptr %2, align 8, !tbaa !832
  %3 = load ptr, ptr %2, align 8
  %4 = call noundef ptr @_ZNKSt9_Any_data9_M_accessEv(ptr noundef nonnull align 8 dereferenceable(16) %3) #6
  ret ptr %4
}

; Function Attrs: mustprogress nounwind uwtable
define internal noundef i64 @"_ZSt10__invoke_rImRZN3igl7tinyply7PlyFile11PlyFileImpl10parse_dataERSibE3$_3JRNS3_14PropertyLookupERKNS1_11PlyPropertyES4_EENSt9enable_ifIX16is_invocable_r_vIT_T0_DpT1_EESD_E4typeEOSE_DpOSF_"(ptr noundef nonnull align 8 dereferenceable(32) %0, ptr noundef nonnull align 8 dereferenceable(32) %1, ptr noundef nonnull align 8 dereferenceable(48) %2, ptr noundef nonnull align 8 dereferenceable(16) %3) #4 personality ptr @__gxx_personality_v0 {
  %5 = alloca ptr, align 8
  %6 = alloca ptr, align 8
  %7 = alloca ptr, align 8
  %8 = alloca ptr, align 8
  store ptr %0, ptr %5, align 8, !tbaa !29
  store ptr %1, ptr %6, align 8, !tbaa !108
  store ptr %2, ptr %7, align 8, !tbaa !56
  store ptr %3, ptr %8, align 8, !tbaa !58
  %9 = load ptr, ptr %5, align 8, !tbaa !29
  %10 = load ptr, ptr %6, align 8, !tbaa !108
  %11 = load ptr, ptr %7, align 8, !tbaa !56
  %12 = load ptr, ptr %8, align 8, !tbaa !58
  %13 = invoke noundef i64 @"_ZSt13__invoke_implImRZN3igl7tinyply7PlyFile11PlyFileImpl10parse_dataERSibE3$_3JRNS3_14PropertyLookupERKNS1_11PlyPropertyES4_EET_St14__invoke_otherOT0_DpOT1_"(ptr noundef nonnull align 8 dereferenceable(32) %9, ptr noundef nonnull align 8 dereferenceable(32) %10, ptr noundef nonnull align 8 dereferenceable(48) %11, ptr noundef nonnull align 8 dereferenceable(16) %12)
          to label %14 unwind label %15

14:                                               ; preds = %4
  ret i64 %13

15:                                               ; preds = %4
  %16 = landingpad { ptr, i32 }
          catch ptr null
  %17 = extractvalue { ptr, i32 } %16, 0
  call void @__clang_call_terminate(ptr %17) #23
  unreachable
}

; Function Attrs: mustprogress nounwind uwtable
define internal noundef ptr @"_ZNSt14_Function_base13_Base_managerIZN3igl7tinyply7PlyFile11PlyFileImpl10parse_dataERSibE3$_3E14_M_get_pointerERKSt9_Any_data"(ptr noundef nonnull align 8 dereferenceable(16) %0) #4 align 2 {
  %2 = alloca ptr, align 8
  store ptr %0, ptr %2, align 8, !tbaa !832
  %3 = load ptr, ptr %2, align 8, !tbaa !832
  %4 = call noundef nonnull align 8 dereferenceable(8) ptr @"_ZNKSt9_Any_data9_M_accessIPZN3igl7tinyply7PlyFile11PlyFileImpl10parse_dataERSibE3$_3EERKT_v"(ptr noundef nonnull align 8 dereferenceable(16) %3) #6
  %5 = load ptr, ptr %4, align 8, !tbaa !29
  ret ptr %5
}

; Function Attrs: mustprogress nounwind uwtable
define internal noundef i64 @"_ZNSt17_Function_handlerIFmRN3igl7tinyply7PlyFile11PlyFileImpl14PropertyLookupERKNS1_11PlyPropertyERSiEZNS3_10parse_dataES9_bE3$_3E9_M_invokeERKSt9_Any_dataS5_S8_S9_"(ptr noundef nonnull align 8 dereferenceable(16) %0, ptr noundef nonnull align 8 dereferenceable(32) %1, ptr noundef nonnull align 8 dereferenceable(48) %2, ptr noundef nonnull align 8 dereferenceable(16) %3) #4 align 2 {
  %5 = alloca ptr, align 8
  %6 = alloca ptr, align 8
  %7 = alloca ptr, align 8
  %8 = alloca ptr, align 8
  store ptr %0, ptr %5, align 8, !tbaa !832
  store ptr %1, ptr %6, align 8, !tbaa !108
  store ptr %2, ptr %7, align 8, !tbaa !56
  store ptr %3, ptr %8, align 8, !tbaa !58
  %9 = load ptr, ptr %5, align 8, !tbaa !832
  %10 = call noundef ptr @"_ZNSt14_Function_base13_Base_managerIZN3igl7tinyply7PlyFile11PlyFileImpl10parse_dataERSibE3$_3E14_M_get_pointerERKSt9_Any_data"(ptr noundef nonnull align 8 dereferenceable(16) %9) #6
  %11 = load ptr, ptr %6, align 8, !tbaa !108
  %12 = load ptr, ptr %7, align 8, !tbaa !56
  %13 = load ptr, ptr %8, align 8, !tbaa !58
  %14 = call noundef i64 @"_ZSt10__invoke_rImRZN3igl7tinyply7PlyFile11PlyFileImpl10parse_dataERSibE3$_3JRNS3_14PropertyLookupERKNS1_11PlyPropertyES4_EENSt9enable_ifIX16is_invocable_r_vIT_T0_DpT1_EESD_E4typeEOSE_DpOSF_"(ptr noundef nonnull align 8 dereferenceable(32) %10, ptr noundef nonnull align 8 dereferenceable(32) %11, ptr noundef nonnull align 8 dereferenceable(48) %12, ptr noundef nonnull align 8 dereferenceable(16) %13) #6
  ret i64 %14
}