; Function Attrs: mustprogress nounwind uwtable
define internal noundef i64 @"_ZNSt17_Function_handlerIFmRN3igl7tinyply7PlyFile11PlyFileImpl14PropertyLookupERKNS1_11PlyPropertyERSiEZNS3_10parse_dataES9_bE3$_3E9_M_invokeERKSt9_Any_dataS5_S8_S9_"(ptr noundef nonnull readonly align 8 captures(none) dereferenceable(16) %0, ptr noundef nonnull readonly align 8 captures(none) dereferenceable(32) %1, ptr noundef nonnull readonly align 8 captures(none) dereferenceable(48) %2, ptr noundef nonnull align 8 dereferenceable(16) %3) #2 align 2 personality ptr @__gxx_personality_v0 {
  %.val = load ptr, ptr %0, align 8, !tbaa !155
  %5 = getelementptr inbounds nuw i8, ptr %.val, i64 24
  %6 = load ptr, ptr %5, align 8, !tbaa !429
  %7 = getelementptr inbounds nuw i8, ptr %6, i64 8
  store i64 0, ptr %7, align 8, !tbaa !32
  %8 = load ptr, ptr %6, align 8, !tbaa !28
  store i8 0, ptr %8, align 1, !tbaa !33
  %9 = getelementptr inbounds nuw i8, ptr %2, i64 33
  %10 = load i8, ptr %9, align 1, !tbaa !38, !range !101, !noundef !102
  %11 = trunc nuw i8 %10 to i1
  br i1 %11, label %12, label %33

12:                                               ; preds = %4
  %13 = getelementptr inbounds nuw i8, ptr %2, i64 34
  %14 = getelementptr inbounds nuw i8, ptr %1, i64 24
  %15 = getelementptr inbounds nuw i8, ptr %.val, i64 8
  %16 = load ptr, ptr %15, align 8, !tbaa !431
  %17 = getelementptr inbounds nuw i8, ptr %.val, i64 16
  %18 = load ptr, ptr %17, align 8, !tbaa !432
  %19 = invoke noundef i64 @_ZN3igl7tinyply7PlyFile11PlyFileImpl19read_property_asciiERKNS0_4TypeERKmPvRmRSi(ptr nonnull align 8 poison, ptr noundef nonnull readonly align 1 dereferenceable(1) %13, ptr noundef nonnull readonly align 8 dereferenceable(8) %14, ptr noundef %16, ptr noundef nonnull align 8 dereferenceable(8) %18, ptr noundef nonnull align 8 dereferenceable(16) %3)
          to label %.preheader.i.i.i unwind label %.loopexit.split-lp.i.i.i

.preheader.i.i.i:                                 ; preds = %12
  %20 = load ptr, ptr %15, align 8, !tbaa !431
  %21 = load i32, ptr %20, align 4, !tbaa !25
  %.not.i.i.i = icmp eq i32 %21, 0
  br i1 %.not.i.i.i, label %._crit_edge.i.i.i, label %.lr.ph.i.i.i

._crit_edge.i.i.i:                                ; preds = %27, %.preheader.i.i.i
  %.lcssa.i.i.i = phi i64 [ 0, %.preheader.i.i.i ], [ %31, %27 ]
  %22 = getelementptr inbounds nuw i8, ptr %1, i64 16
  %23 = load i64, ptr %22, align 8, !tbaa !244
  %24 = mul i64 %23, %.lcssa.i.i.i
  br label %"_ZSt10__invoke_rImRZN3igl7tinyply7PlyFile11PlyFileImpl10parse_dataERSibE3$_3JRNS3_14PropertyLookupERKNS1_11PlyPropertyES4_EENSt9enable_ifIX16is_invocable_r_vIT_T0_DpT1_EESD_E4typeEOSE_DpOSF_.exit"

.lr.ph.i.i.i:                                     ; preds = %.preheader.i.i.i, %27
  %.014.i.i.i = phi i64 [ %28, %27 ], [ 0, %.preheader.i.i.i ]
  %25 = load ptr, ptr %5, align 8, !tbaa !429
  %26 = invoke noundef nonnull align 8 dereferenceable(16) ptr @_ZStrsIcSt11char_traitsIcESaIcEERSt13basic_istreamIT_T0_ES7_RNSt7__cxx1112basic_stringIS4_S5_T1_EE(ptr noundef nonnull align 8 dereferenceable(16) %3, ptr noundef nonnull align 8 dereferenceable(32) %25)
          to label %27 unwind label %.loopexit.i.i.i

27:                                               ; preds = %.lr.ph.i.i.i
  %28 = add nuw nsw i64 %.014.i.i.i, 1
  %29 = load ptr, ptr %15, align 8, !tbaa !431
  %30 = load i32, ptr %29, align 4, !tbaa !25
  %31 = zext i32 %30 to i64
  %32 = icmp samesign ult i64 %28, %31
  br i1 %32, label %.lr.ph.i.i.i, label %._crit_edge.i.i.i, !llvm.loop !433

33:                                               ; preds = %4
  %34 = load ptr, ptr %5, align 8, !tbaa !429
  %35 = invoke noundef nonnull align 8 dereferenceable(16) ptr @_ZStrsIcSt11char_traitsIcESaIcEERSt13basic_istreamIT_T0_ES7_RNSt7__cxx1112basic_stringIS4_S5_T1_EE(ptr noundef nonnull align 8 dereferenceable(16) %3, ptr noundef nonnull align 8 dereferenceable(32) %34)
          to label %36 unwind label %.loopexit.split-lp.i.i.i

36:                                               ; preds = %33
  %37 = getelementptr inbounds nuw i8, ptr %1, i64 16
  %38 = load i64, ptr %37, align 8, !tbaa !244
  br label %"_ZSt10__invoke_rImRZN3igl7tinyply7PlyFile11PlyFileImpl10parse_dataERSibE3$_3JRNS3_14PropertyLookupERKNS1_11PlyPropertyES4_EENSt9enable_ifIX16is_invocable_r_vIT_T0_DpT1_EESD_E4typeEOSE_DpOSF_.exit"

.loopexit.i.i.i:                                  ; preds = %.lr.ph.i.i.i
  %lpad.loopexit.i.i.i = landingpad { ptr, i32 }
          catch ptr null
  br label %39

.loopexit.split-lp.i.i.i:                         ; preds = %33, %12
  %lpad.loopexit.split-lp.i.i.i = landingpad { ptr, i32 }
          catch ptr null
  br label %39

39:                                               ; preds = %.loopexit.split-lp.i.i.i, %.loopexit.i.i.i
  %lpad.phi.i.i.i = phi { ptr, i32 } [ %lpad.loopexit.i.i.i, %.loopexit.i.i.i ], [ %lpad.loopexit.split-lp.i.i.i, %.loopexit.split-lp.i.i.i ]
  %40 = extractvalue { ptr, i32 } %lpad.phi.i.i.i, 0
  tail call void @__clang_call_terminate(ptr %40) #31
  unreachable

"_ZSt10__invoke_rImRZN3igl7tinyply7PlyFile11PlyFileImpl10parse_dataERSibE3$_3JRNS3_14PropertyLookupERKNS1_11PlyPropertyES4_EENSt9enable_ifIX16is_invocable_r_vIT_T0_DpT1_EESD_E4typeEOSE_DpOSF_.exit": ; preds = %._crit_edge.i.i.i, %36
  %.011.i.i.i = phi i64 [ %24, %._crit_edge.i.i.i ], [ %38, %36 ]
  ret i64 %.011.i.i.i
}